target datalayout = "e-m:e-p270:32:32-p271:32:32-p272:64:64-i64:64-i128:128-f80:128-n8:16:32:64-S128"
target triple = "x86_64-pc-linux-gnu"

%struct.Abc_Ntk_t_ = type { i32, i32, ptr, ptr, ptr, ptr, ptr, ptr, ptr, ptr, ptr, ptr, ptr, [11 x i32], i32, i32, i32, i32, ptr, i32, ptr, ptr, i32, i32, i32, double, i32, %struct.Vec_Int_t_, ptr, ptr, ptr, ptr, ptr, float, i32, ptr, ptr, ptr, ptr, ptr, ptr, ptr, ptr, ptr, ptr, ptr, ptr, ptr, ptr, ptr, ptr, ptr, ptr, ptr, ptr, ptr }
%struct.Vec_Int_t_ = type { i32, i32, ptr }
%struct.Abc_Obj_t_ = type { ptr, ptr, i32, i32, %struct.Vec_Int_t_, %struct.Vec_Int_t_, %union.anon, %union.anon.0 }
%union.anon = type { ptr }
%union.anon.0 = type { ptr }
%struct.Vec_Ptr_t_ = type { i32, i32, ptr }
%struct.If_LibLut_t_ = type { ptr, i32, i32, [33 x float], [33 x [33 x float]] }

; Function Attrs: nounwind uwtable
define internal ptr @Vec_PtrEntry(ptr noundef %0, i32 noundef %1) #0 {
  %3 = alloca ptr, align 8
  %4 = alloca i32, align 4
  store ptr %0, ptr %3, align 8
  store i32 %1, ptr %4, align 4
  %5 = load ptr, ptr %3, align 8
  %6 = getelementptr inbounds %struct.Vec_Ptr_t_, ptr %5, i32 0, i32 2
  %7 = load ptr, ptr %6, align 8
  %8 = load i32, ptr %4, align 4
  %9 = sext i32 %8 to i64
  %10 = getelementptr inbounds ptr, ptr %7, i64 %9
  %11 = load ptr, ptr %10, align 8
  ret ptr %11
}

; Function Attrs: nounwind uwtable
define internal i32 @Abc_ObjFaninNum(ptr noundef %0) #0 {
  %2 = alloca ptr, align 8
  store ptr %0, ptr %2, align 8
  %3 = load ptr, ptr %2, align 8
  %4 = getelementptr inbounds %struct.Abc_Obj_t_, ptr %3, i32 0, i32 4
  %5 = getelementptr inbounds %struct.Vec_Int_t_, ptr %4, i32 0, i32 1
  %6 = load i32, ptr %5, align 4
  ret i32 %6
}

; Function Attrs: nounwind uwtable
define internal i32 @Abc_ObjIsNode(ptr noundef %0) #0 {
  %2 = alloca ptr, align 8
  store ptr %0, ptr %2, align 8
  %3 = load ptr, ptr %2, align 8
  %4 = getelementptr inbounds %struct.Abc_Obj_t_, ptr %3, i32 0, i32 3
  %5 = load i32, ptr %4, align 4
  %6 = and i32 %5, 15
  %7 = icmp eq i32 %6, 7
  %8 = zext i1 %7 to i32
  ret i32 %8
}

; Function Attrs: nounwind uwtable
define internal ptr @Abc_NtkObj(ptr noundef %0, i32 noundef %1) #0 {
  %3 = alloca ptr, align 8
  %4 = alloca i32, align 4
  store ptr %0, ptr %3, align 8
  store i32 %1, ptr %4, align 4
  %5 = load ptr, ptr %3, align 8
  %6 = getelementptr inbounds %struct.Abc_Ntk_t_, ptr %5, i32 0, i32 5
  %7 = load ptr, ptr %6, align 8
  %8 = load i32, ptr %4, align 4
  %9 = call ptr @Vec_PtrEntry(ptr noundef %7, i32 noundef %8)
  ret ptr %9
}

; Function Attrs: nounwind uwtable
define internal i32 @Vec_PtrSize(ptr noundef %0) #0 {
  %2 = alloca ptr, align 8
  store ptr %0, ptr %2, align 8
  %3 = load ptr, ptr %2, align 8
  %4 = getelementptr inbounds %struct.Vec_Ptr_t_, ptr %3, i32 0, i32 1
  %5 = load i32, ptr %4, align 4
  ret i32 %5
}

; Function Attrs: nounwind uwtable
define float @Abc_NtkGetArea(ptr noundef %0) #0 {
  %2 = alloca ptr, align 8
  %3 = alloca ptr, align 8
  %4 = alloca ptr, align 8
  %5 = alloca float, align 4
  %6 = alloca i32, align 4
  store ptr %0, ptr %2, align 8
  store float 0.000000e+00, ptr %5, align 4
  %7 = call ptr (...) @Abc_FrameReadLibLut()
  store ptr %7, ptr %3, align 8
  %8 = load ptr, ptr %3, align 8
  %9 = icmp ne ptr %8, null
  br i1 %9, label %10, label %54

10:                                               ; preds = %1
  %11 = load ptr, ptr %3, align 8
  %12 = getelementptr inbounds %struct.If_LibLut_t_, ptr %11, i32 0, i32 1
  %13 = load i32, ptr %12, align 8
  %14 = load ptr, ptr %2, align 8
  %15 = call i32 @Abc_NtkGetFaninMax(ptr noundef %14)
  %16 = icmp sge i32 %13, %15
  br i1 %16, label %17, label %54

17:                                               ; preds = %10
  store i32 0, ptr %6, align 4
  br label %18

18:                                               ; preds = %50, %17
  %19 = load i32, ptr %6, align 4
  %20 = load ptr, ptr %2, align 8
  %21 = getelementptr inbounds %struct.Abc_Ntk_t_, ptr %20, i32 0, i32 5
  %22 = load ptr, ptr %21, align 8
  %23 = call i32 @Vec_PtrSize(ptr noundef %22)
  %24 = icmp slt i32 %19, %23
  br i1 %24, label %25, label %29

25:                                               ; preds = %18
  %26 = load ptr, ptr %2, align 8
  %27 = load i32, ptr %6, align 4
  %28 = call ptr @Abc_NtkObj(ptr noundef %26, i32 noundef %27)
  store ptr %28, ptr %4, align 8
  br label %29

29:                                               ; preds = %25, %18
  %30 = phi i1 [ false, %18 ], [ true, %25 ]
  br i1 %30, label %31, label %53

31:                                               ; preds = %29
  %32 = load ptr, ptr %4, align 8
  %33 = icmp eq ptr %32, null
  br i1 %33, label %38, label %34

34:                                               ; preds = %31
  %35 = load ptr, ptr %4, align 8
  %36 = call i32 @Abc_ObjIsNode(ptr noundef %35)
  %37 = icmp ne i32 %36, 0
  br i1 %37, label %39, label %38

38:                                               ; preds = %34, %31
  br label %49

39:                                               ; preds = %34
  %40 = load ptr, ptr %3, align 8
  %41 = getelementptr inbounds %struct.If_LibLut_t_, ptr %40, i32 0, i32 3
  %42 = load ptr, ptr %4, align 8
  %43 = call i32 @Abc_ObjFaninNum(ptr noundef %42)
  %44 = sext i32 %43 to i64
  %45 = getelementptr inbounds [33 x float], ptr %41, i64 0, i64 %44
  %46 = load float, ptr %45, align 4
  %47 = load float, ptr %5, align 4
  %48 = fadd float %47, %46
  store float %48, ptr %5, align 4
  br label %49

49:                                               ; preds = %39, %38
  br label %50

50:                                               ; preds = %49
  %51 = load i32, ptr %6, align 4
  %52 = add nsw i32 %51, 1
  store i32 %52, ptr %6, align 4
  br label %18, !llvm.loop !8

53:                                               ; preds = %29
  br label %54

54:                                               ; preds = %53, %10, %1
  %55 = load float, ptr %5, align 4
  ret float %55
}