; Function Attrs: nounwind uwtable
define float @Abc_NtkGetArea(ptr noundef %0) local_unnamed_addr #0 {
  %2 = tail call ptr (...) @Abc_FrameReadLibLut() #19
  %.not = icmp eq ptr %2, null
  br i1 %.not, label %.critedge, label %3

3:                                                ; preds = %1
  %4 = getelementptr inbounds nuw i8, ptr %2, i64 8
  %5 = load i32, ptr %4, align 8
  %6 = tail call i32 @Abc_NtkGetFaninMax(ptr noundef %0) #19
  %.not16 = icmp slt i32 %5, %6
  br i1 %.not16, label %.critedge, label %.preheader

.preheader:                                       ; preds = %3
  %7 = getelementptr inbounds nuw i8, ptr %0, i64 32
  %8 = load ptr, ptr %7, align 8
  %9 = getelementptr i8, ptr %8, i64 4
  %.val = load i32, ptr %9, align 4
  %10 = icmp sgt i32 %.val, 0
  br i1 %10, label %.lr.ph, label %.critedge

.lr.ph:                                           ; preds = %.preheader
  %11 = getelementptr i8, ptr %8, i64 8
  %.val18.val = load ptr, ptr %11, align 8
  %12 = getelementptr inbounds nuw i8, ptr %2, i64 16
  %wide.trip.count = zext nneg i32 %.val to i64
  br label %13

13:                                               ; preds = %.lr.ph, %26
  %indvars.iv = phi i64 [ 0, %.lr.ph ], [ %indvars.iv.next, %26 ]
  %.122 = phi float [ 0.000000e+00, %.lr.ph ], [ %.2, %26 ]
  %14 = getelementptr inbounds nuw ptr, ptr %.val18.val, i64 %indvars.iv
  %15 = load ptr, ptr %14, align 8
  %16 = icmp eq ptr %15, null
  br i1 %16, label %26, label %17

17:                                               ; preds = %13
  %18 = getelementptr i8, ptr %15, i64 20
  %.val19 = load i32, ptr %18, align 4
  %19 = and i32 %.val19, 15
  %.not21 = icmp eq i32 %19, 7
  br i1 %.not21, label %20, label %26

20:                                               ; preds = %17
  %21 = getelementptr i8, ptr %15, i64 28
  %.val20 = load i32, ptr %21, align 4
  %22 = sext i32 %.val20 to i64
  %23 = getelementptr inbounds [33 x float], ptr %12, i64 0, i64 %22
  %24 = load float, ptr %23, align 4
  %25 = fadd float %.122, %24
  br label %26

26:                                               ; preds = %20, %17, %13
  %.2 = phi float [ %.122, %13 ], [ %25, %20 ], [ %.122, %17 ]
  %indvars.iv.next = add nuw nsw i64 %indvars.iv, 1
  %exitcond.not = icmp eq i64 %indvars.iv.next, %wide.trip.count
  br i1 %exitcond.not, label %.critedge, label %13, !llvm.loop !8

.critedge:                                        ; preds = %26, %.preheader, %3, %1
  %.013 = phi float [ 0.000000e+00, %3 ], [ 0.000000e+00, %1 ], [ 0.000000e+00, %.preheader ], [ %.2, %26 ]
  ret float %.013
}